Certificate:
    Data:
        Version: 3 (0x2)
        Serial Number: 2 (0x2)
    Signature Algorithm: sha256WithRSAEncryption
        Issuer: C=FR, ST=Radius, L=Somewhere, O=Example Inc./emailAddress=admin@example.org, CN=Example Certificate Authority
        Validity
            Not Before: Nov 28 11:00:27 2018 GMT
            Not After : Jan 27 11:00:27 2019 GMT
        Subject: C=FR, ST=Radius, O=Example Inc., CN=user@example.org/emailAddress=user@example.org
        Subject Public Key Info:
            Public Key Algorithm: rsaEncryption
                Public-Key: (2048 bit)
                Modulus:
                    00:e0:37:ac:fe:0c:d2:3d:22:6b:82:2a:72:90:3d:
                    c2:fd:cc:05:e6:d7:b9:97:e3:59:78:83:a8:5e:4b:
                    d7:42:88:de:f0:ab:ea:e5:ff:c2:4c:a4:33:18:80:
                    3b:20:27:89:e5:03:38:5f:42:07:85:90:8c:28:4a:
                    2b:2c:36:1d:2e:fc:73:2b:5f:d1:f9:c6:e6:ea:a5:
                    fe:ca:db:dd:8d:85:77:3c:6c:ed:99:ff:e4:8f:8a:
                    fe:80:1d:1c:e4:1b:a8:83:35:4b:0e:6d:7d:f3:fc:
                    a7:19:84:ec:84:72:1d:22:aa:39:1f:9e:bc:46:da:
                    e0:d5:75:71:c8:ba:b6:e7:05:2b:0d:23:9f:7f:a1:
                    66:8f:ce:12:db:fd:15:6f:54:ec:21:03:86:19:b1:
                    1c:16:8b:c2:87:9e:e7:fd:ec:57:07:6d:de:83:40:
                    74:ac:7b:45:68:29:36:95:08:76:11:b7:ab:ff:52:
                    43:6a:db:17:c5:96:55:47:aa:b4:c4:e0:b9:46:cd:
                    62:86:64:7d:10:b0:76:94:f1:2f:a7:a3:e4:ca:5b:
                    2a:af:49:9c:39:f2:aa:fb:65:d6:2c:72:ba:ae:ea:
                    42:13:b3:42:a1:c3:02:ac:d3:71:b8:cc:fa:fd:9d:
                    61:b2:6f:8e:ad:98:62:03:1d:97:4f:b7:23:e7:a6:
                    3f:83
                Exponent: 65537 (0x10001)
        X509v3 extensions:
            X509v3 Extended Key Usage: 
                TLS Web Client Authentication
            X509v3 CRL Distribution Points: 

                Full Name:
                  URI:http://www.example.com/example_ca.crl

    Signature Algorithm: sha256WithRSAEncryption
         79:45:4a:12:a1:70:6f:1a:20:c3:5e:70:ec:6f:90:93:28:53:
         05:d1:af:67:32:5b:a5:8f:7b:d4:a9:68:01:bf:e6:b3:56:a5:
         c2:e2:5e:c0:95:23:f7:25:ba:6c:7a:2a:9b:00:82:58:33:8c:
         93:94:44:3c:f7:db:f9:48:02:94:0d:0f:d4:bd:66:2c:74:8d:
         77:a1:28:f3:47:ec:be:ea:43:fd:bb:2f:41:3f:f1:8c:ab:fc:
         26:74:e3:d6:7d:78:0d:46:a7:50:a8:e9:51:bb:a4:fd:e3:f9:
         c9:f6:d8:e8:c4:04:fb:bc:02:8f:b6:9e:d0:9f:02:0b:7d:fc:
         8d:7e:cb:16:bf:f0:5e:4f:0c:e6:74:08:ee:a9:63:ac:c7:69:
         56:9f:85:be:c0:51:ac:c4:ca:6a:21:9c:65:00:ba:0d:60:7e:
         db:ca:89:d9:ab:c3:99:d5:0e:51:b2:b3:87:cd:54:a6:5b:e1:
         c0:e4:61:2b:ad:c6:dc:af:de:49:e9:78:ef:2e:ce:84:02:f4:
         73:30:0c:e0:b4:9d:db:00:9a:82:1f:8d:2b:87:e9:a3:4d:9c:
         67:71:b3:ab:98:69:a1:97:0d:bd:48:f9:ac:46:95:2e:6a:f8:
         90:19:52:2a:ab:b9:b5:bf:1a:4f:14:6e:53:03:6e:c2:bc:99:
         2c:c4:54:5c
-----BEGIN CERTIFICATE-----
MIIDzzCCAregAwIBAgIBAjANBgkqhkiG9w0BAQsFADCBkzELMAkGA1UEBhMCRlIx
DzANBgNVBAgMBlJhZGl1czESMBAGA1UEBwwJU29tZXdoZXJlMRUwEwYDVQQKDAxF
eGFtcGxlIEluYy4xIDAeBgkqhkiG9w0BCQEWEWFkbWluQGV4YW1wbGUub3JnMSYw
JAYDVQQDDB1FeGFtcGxlIENlcnRpZmljYXRlIEF1dGhvcml0eTAeFw0xODExMjgx
MTAwMjdaFw0xOTAxMjcxMTAwMjdaMHExCzAJBgNVBAYTAkZSMQ8wDQYDVQQIDAZS
YWRpdXMxFTATBgNVBAoMDEV4YW1wbGUgSW5jLjEZMBcGA1UEAwwQdXNlckBleGFt
cGxlLm9yZzEfMB0GCSqGSIb3DQEJARYQdXNlckBleGFtcGxlLm9yZzCCASIwDQYJ
KoZIhvcNAQEBBQADggEPADCCAQoCggEBAOA3rP4M0j0ia4IqcpA9wv3MBebXuZfj
WXiDqF5L10KI3vCr6uX/wkykMxiAOyAnieUDOF9CB4WQjChKKyw2HS78cytf0fnG
5uql/srb3Y2Fdzxs7Zn/5I+K/oAdHOQbqIM1Sw5tffP8pxmE7IRyHSKqOR+evEba
4NV1cci6tucFKw0jn3+hZo/OEtv9FW9U7CEDhhmxHBaLwoee5/3sVwdt3oNAdKx7
RWgpNpUIdhG3q/9SQ2rbF8WWVUeqtMTguUbNYoZkfRCwdpTxL6ej5MpbKq9JnDny
qvtl1ixyuq7qQhOzQqHDAqzTcbjM+v2dYbJvjq2YYgMdl0+3I+emP4MCAwEAAaNP
ME0wEwYDVR0lBAwwCgYIKwYBBQUHAwIwNgYDVR0fBC8wLTAroCmgJ4YlaHR0cDov
L3d3dy5leGFtcGxlLmNvbS9leGFtcGxlX2NhLmNybDANBgkqhkiG9w0BAQsFAAOC
AQEAeUVKEqFwbxogw15w7G+QkyhTBdGvZzJbpY971KloAb/ms1alwuJewJUj9yW6
bHoqmwCCWDOMk5REPPfb+UgClA0P1L1mLHSNd6Eo80fsvupD/bsvQT/xjKv8JnTj
1n14DUanUKjpUbuk/eP5yfbY6MQE+7wCj7ae0J8CC338jX7LFr/wXk8M5nQI7qlj
rMdpVp+FvsBRrMTKaiGcZQC6DWB+28qJ2avDmdUOUbKzh81UplvhwORhK63G3K/e
Sel47y7OhAL0czAM4LSd2wCagh+NK4fpo02cZ3Gzq5hpoZcNvUj5rEaVLmr4kBlS
Kqu5tb8aTxRuUwNuwryZLMRUXA==
-----END CERTIFICATE-----
