Certificate:
    Data:
        Version: 3 (0x2)
        Serial Number: 2 (0x2)
    Signature Algorithm: sha256WithRSAEncryption
        Issuer: C=FR, ST=Radius, L=Somewhere, O=Example Inc./emailAddress=admin@example.org, CN=Example Certificate Authority
        Validity
            Not Before: Dec  4 12:44:43 2018 GMT
            Not After : Feb  2 12:44:43 2019 GMT
        Subject: C=FR, ST=Radius, O=Example Inc., CN=user@example.org/emailAddress=user@example.org
        Subject Public Key Info:
            Public Key Algorithm: rsaEncryption
                Public-Key: (2048 bit)
                Modulus:
                    00:93:f2:66:6f:53:2a:83:89:69:77:06:ad:3f:9e:
                    5c:c5:1e:06:4d:16:97:06:0a:a6:05:e4:ea:dd:a0:
                    3b:65:c8:41:54:1b:f7:cf:97:5b:1b:d5:13:37:5d:
                    7f:94:e0:bb:4c:05:ce:81:51:fd:05:99:5d:4d:b8:
                    d1:76:a8:c5:5c:55:b3:22:1f:d8:e7:9a:a5:0c:cb:
                    44:65:1d:83:b1:22:64:dc:c6:4e:97:9c:81:c1:e6:
                    ec:e0:c0:f1:c3:b9:d5:d2:70:e4:fc:9d:76:24:d4:
                    e0:a8:7e:18:a5:2e:3d:49:87:0d:6d:4c:bf:a0:2f:
                    28:d1:a4:2f:8d:4b:75:3c:40:0c:1f:54:7c:ba:74:
                    80:f0:ce:8f:82:65:a1:cf:f6:15:ea:31:e2:40:14:
                    62:d3:d1:01:27:b0:4b:bc:85:0f:df:f6:aa:8d:11:
                    be:39:06:a2:20:68:12:7f:ad:8d:be:15:b2:c4:90:
                    d2:3f:12:90:b1:2d:11:27:17:00:73:0e:2b:a0:f5:
                    39:cf:14:f9:13:59:88:23:21:13:8e:2d:5c:8a:e9:
                    c4:90:ec:58:bd:39:1c:64:7c:0c:a9:85:25:1a:16:
                    80:64:d0:e2:32:dd:2f:cd:ca:b9:f0:50:36:e4:9e:
                    fe:d4:8a:61:ec:ed:e8:c0:40:85:ba:c7:a8:56:08:
                    89:71
                Exponent: 65537 (0x10001)
        X509v3 extensions:
            X509v3 Extended Key Usage: 
                TLS Web Client Authentication
            X509v3 CRL Distribution Points: 

                Full Name:
                  URI:http://www.example.com/example_ca.crl

    Signature Algorithm: sha256WithRSAEncryption
         2f:26:7d:23:18:5f:44:ce:b2:15:1a:1f:0b:e3:f0:57:4a:b1:
         01:d8:1f:af:c0:07:d6:56:b0:18:81:c5:0e:df:9f:d5:e3:f2:
         2e:e5:0a:9d:87:b0:23:c8:87:88:4e:5b:29:7a:e4:30:35:46:
         2c:b3:9b:02:77:6e:d4:10:31:de:d5:9b:07:fc:9c:d8:e2:05:
         3e:8a:a1:b8:0a:1e:53:dc:3a:72:a0:75:2d:32:f7:76:60:84:
         aa:79:7e:ea:11:4e:62:cb:5c:5c:11:56:78:75:23:e1:e3:0f:
         f2:0a:a6:fb:fa:04:52:ad:54:6f:bb:af:92:1e:e1:62:89:76:
         93:1f:7b:13:7e:4b:99:74:d8:85:8e:d4:00:ed:40:1c:49:6c:
         75:5d:19:da:27:a8:b9:e7:4c:d1:9e:5b:75:5e:62:7a:6e:e3:
         a9:e5:9a:b5:30:6b:25:6d:e8:c9:1f:8c:d8:83:b7:a4:b5:e4:
         3d:9f:79:ad:8a:d5:35:f3:bd:cc:f2:cf:25:22:de:34:95:bb:
         bf:60:d5:c5:9a:90:ae:a8:41:56:06:30:5b:19:b6:87:a4:88:
         a7:47:ca:30:b2:e2:03:63:8b:ce:a3:d2:7a:fb:1f:1a:03:0e:
         fc:61:82:94:5d:13:eb:6f:3d:b6:b5:2a:f0:8b:a1:ca:70:8d:
         c5:a5:83:a6
-----BEGIN CERTIFICATE-----
MIIDzzCCAregAwIBAgIBAjANBgkqhkiG9w0BAQsFADCBkzELMAkGA1UEBhMCRlIx
DzANBgNVBAgMBlJhZGl1czESMBAGA1UEBwwJU29tZXdoZXJlMRUwEwYDVQQKDAxF
eGFtcGxlIEluYy4xIDAeBgkqhkiG9w0BCQEWEWFkbWluQGV4YW1wbGUub3JnMSYw
JAYDVQQDDB1FeGFtcGxlIENlcnRpZmljYXRlIEF1dGhvcml0eTAeFw0xODEyMDQx
MjQ0NDNaFw0xOTAyMDIxMjQ0NDNaMHExCzAJBgNVBAYTAkZSMQ8wDQYDVQQIDAZS
YWRpdXMxFTATBgNVBAoMDEV4YW1wbGUgSW5jLjEZMBcGA1UEAwwQdXNlckBleGFt
cGxlLm9yZzEfMB0GCSqGSIb3DQEJARYQdXNlckBleGFtcGxlLm9yZzCCASIwDQYJ
KoZIhvcNAQEBBQADggEPADCCAQoCggEBAJPyZm9TKoOJaXcGrT+eXMUeBk0WlwYK
pgXk6t2gO2XIQVQb98+XWxvVEzddf5Tgu0wFzoFR/QWZXU240XaoxVxVsyIf2Oea
pQzLRGUdg7EiZNzGTpecgcHm7ODA8cO51dJw5PyddiTU4Kh+GKUuPUmHDW1Mv6Av
KNGkL41LdTxADB9UfLp0gPDOj4Jloc/2Feox4kAUYtPRASewS7yFD9/2qo0RvjkG
oiBoEn+tjb4VssSQ0j8SkLEtEScXAHMOK6D1Oc8U+RNZiCMhE44tXIrpxJDsWL05
HGR8DKmFJRoWgGTQ4jLdL83KufBQNuSe/tSKYezt6MBAhbrHqFYIiXECAwEAAaNP
ME0wEwYDVR0lBAwwCgYIKwYBBQUHAwIwNgYDVR0fBC8wLTAroCmgJ4YlaHR0cDov
L3d3dy5leGFtcGxlLmNvbS9leGFtcGxlX2NhLmNybDANBgkqhkiG9w0BAQsFAAOC
AQEALyZ9IxhfRM6yFRofC+PwV0qxAdgfr8AH1lawGIHFDt+f1ePyLuUKnYewI8iH
iE5bKXrkMDVGLLObAndu1BAx3tWbB/yc2OIFPoqhuAoeU9w6cqB1LTL3dmCEqnl+
6hFOYstcXBFWeHUj4eMP8gqm+/oEUq1Ub7uvkh7hYol2kx97E35LmXTYhY7UAO1A
HElsdV0Z2ieouedM0Z5bdV5iem7jqeWatTBrJW3oyR+M2IO3pLXkPZ95rYrVNfO9
zPLPJSLeNJW7v2DVxZqQrqhBVgYwWxm2h6SIp0fKMLLiA2OLzqPSevsfGgMO/GGC
lF0T6289trUq8IuhynCNxaWDpg==
-----END CERTIFICATE-----
