Certificate:
    Data:
        Version: 3 (0x2)
        Serial Number: 1 (0x1)
    Signature Algorithm: sha256WithRSAEncryption
        Issuer: C=FR, ST=Radius, L=Somewhere, O=Example Inc./emailAddress=admin@example.org, CN=Example Certificate Authority
        Validity
            Not Before: Nov 28 11:00:26 2018 GMT
            Not After : Jan 27 11:00:26 2019 GMT
        Subject: C=FR, ST=Radius, O=Example Inc., CN=Example Server Certificate/emailAddress=admin@example.org
        Subject Public Key Info:
            Public Key Algorithm: rsaEncryption
                Public-Key: (2048 bit)
                Modulus:
                    00:da:da:da:54:15:43:06:c8:3a:ff:55:89:e1:a3:
                    b4:48:00:f1:31:a5:f7:b2:6d:ff:58:4f:0f:f9:9f:
                    47:bc:cf:a1:31:78:94:50:ae:9d:eb:b3:f9:2b:92:
                    d1:0a:a3:8c:7f:ab:cc:85:50:91:9c:db:1f:33:3e:
                    c6:5a:ff:87:cb:f7:ad:98:4a:06:af:f2:d7:41:7f:
                    21:00:a9:69:27:86:45:84:e2:e9:85:4a:79:11:6c:
                    c1:84:e5:fc:88:2c:46:e8:42:a6:fe:b7:d6:98:f3:
                    f9:0a:f4:f3:02:fc:d5:63:38:d6:a9:d6:3f:0f:73:
                    a8:59:cc:cf:06:8d:90:a1:95:40:6f:e1:85:f6:8b:
                    90:49:15:33:b7:8e:b7:c8:64:98:de:91:ef:74:67:
                    93:6e:5f:72:fc:fc:e2:29:c7:8c:a5:61:32:be:fe:
                    86:c0:c2:81:75:9e:4c:44:dd:fe:83:8e:76:91:a0:
                    03:79:64:48:d0:0a:bb:91:15:f6:8d:57:00:68:c3:
                    65:a5:7c:16:7b:05:b8:e5:19:7a:b8:83:9b:aa:4d:
                    e9:25:bd:c1:c3:ae:18:5d:da:09:6b:3c:15:a4:51:
                    2a:8d:ff:0f:1a:fb:b3:f4:e6:03:5d:34:2a:6b:0d:
                    1f:6e:54:da:92:76:30:da:3d:92:78:f5:7c:8f:84:
                    a1:45
                Exponent: 65537 (0x10001)
        X509v3 extensions:
            X509v3 Extended Key Usage: 
                TLS Web Server Authentication
            X509v3 CRL Distribution Points: 

                Full Name:
                  URI:http://www.example.com/example_ca.crl

    Signature Algorithm: sha256WithRSAEncryption
         a0:81:17:bf:ec:b8:da:ed:34:29:dc:7e:cf:9b:d7:76:26:af:
         19:a4:87:a7:8d:f4:96:fb:0d:1f:35:7c:64:c7:43:ce:c6:9b:
         d0:75:7c:b6:53:42:61:34:3f:97:62:93:a3:df:37:31:50:31:
         72:86:84:28:43:29:a9:d5:78:be:47:16:03:3f:5c:28:de:dd:
         e6:c7:59:d4:0a:20:79:c2:72:05:ca:cc:1e:52:d4:d2:ae:fc:
         f5:7c:db:8d:70:88:97:c2:9d:d3:d5:73:34:c1:88:06:77:7f:
         db:65:ae:b7:25:e6:d7:3b:57:d2:d3:f9:63:8c:ef:84:01:3d:
         0d:b0:43:97:0d:ca:10:91:e4:a1:d6:be:8b:84:7c:c7:3b:fb:
         f7:a5:54:96:26:e5:e8:9c:20:97:7d:ce:1a:1e:0f:60:02:a1:
         70:f9:cf:e0:63:7d:fb:67:b5:d7:7b:32:0b:a3:8f:d4:94:7c:
         23:7c:f8:75:16:f8:2d:cd:8c:30:8b:b2:1e:ab:38:99:19:99:
         bc:fd:64:b2:3c:8e:03:81:34:d5:7f:77:2b:05:29:24:cb:83:
         4c:34:ff:41:51:42:d9:ca:1e:cd:ee:4d:fe:e1:b1:90:7e:f0:
         01:02:e6:e0:5b:84:b7:bb:e0:aa:e9:f5:26:cf:43:87:33:39:
         df:01:fc:ed
-----BEGIN CERTIFICATE-----
MIID2jCCAsKgAwIBAgIBATANBgkqhkiG9w0BAQsFADCBkzELMAkGA1UEBhMCRlIx
DzANBgNVBAgMBlJhZGl1czESMBAGA1UEBwwJU29tZXdoZXJlMRUwEwYDVQQKDAxF
eGFtcGxlIEluYy4xIDAeBgkqhkiG9w0BCQEWEWFkbWluQGV4YW1wbGUub3JnMSYw
JAYDVQQDDB1FeGFtcGxlIENlcnRpZmljYXRlIEF1dGhvcml0eTAeFw0xODExMjgx
MTAwMjZaFw0xOTAxMjcxMTAwMjZaMHwxCzAJBgNVBAYTAkZSMQ8wDQYDVQQIDAZS
YWRpdXMxFTATBgNVBAoMDEV4YW1wbGUgSW5jLjEjMCEGA1UEAwwaRXhhbXBsZSBT
ZXJ2ZXIgQ2VydGlmaWNhdGUxIDAeBgkqhkiG9w0BCQEWEWFkbWluQGV4YW1wbGUu
b3JnMIIBIjANBgkqhkiG9w0BAQEFAAOCAQ8AMIIBCgKCAQEA2traVBVDBsg6/1WJ
4aO0SADxMaX3sm3/WE8P+Z9HvM+hMXiUUK6d67P5K5LRCqOMf6vMhVCRnNsfMz7G
Wv+Hy/etmEoGr/LXQX8hAKlpJ4ZFhOLphUp5EWzBhOX8iCxG6EKm/rfWmPP5CvTz
AvzVYzjWqdY/D3OoWczPBo2QoZVAb+GF9ouQSRUzt463yGSY3pHvdGeTbl9y/Pzi
KceMpWEyvv6GwMKBdZ5MRN3+g452kaADeWRI0Aq7kRX2jVcAaMNlpXwWewW45Rl6
uIObqk3pJb3Bw64YXdoJazwVpFEqjf8PGvuz9OYDXTQqaw0fblTaknYw2j2SePV8
j4ShRQIDAQABo08wTTATBgNVHSUEDDAKBggrBgEFBQcDATA2BgNVHR8ELzAtMCug
KaAnhiVodHRwOi8vd3d3LmV4YW1wbGUuY29tL2V4YW1wbGVfY2EuY3JsMA0GCSqG
SIb3DQEBCwUAA4IBAQCggRe/7Lja7TQp3H7Pm9d2Jq8ZpIenjfSW+w0fNXxkx0PO
xpvQdXy2U0JhND+XYpOj3zcxUDFyhoQoQymp1Xi+RxYDP1wo3t3mx1nUCiB5wnIF
ysweUtTSrvz1fNuNcIiXwp3T1XM0wYgGd3/bZa63JebXO1fS0/ljjO+EAT0NsEOX
DcoQkeSh1r6LhHzHO/v3pVSWJuXonCCXfc4aHg9gAqFw+c/gY337Z7XXezILo4/U
lHwjfPh1FvgtzYwwi7IeqziZGZm8/WSyPI4DgTTVf3crBSkky4NMNP9BUULZyh7N
7k3+4bGQfvABAubgW4S3u+Cq6fUmz0OHMznfAfzt
-----END CERTIFICATE-----
