Certificate:
    Data:
        Version: 3 (0x2)
        Serial Number: 1 (0x1)
    Signature Algorithm: sha256WithRSAEncryption
        Issuer: C=FR, ST=Radius, L=Somewhere, O=Example Inc./emailAddress=admin@example.org, CN=Example Certificate Authority
        Validity
            Not Before: Dec  4 12:44:43 2018 GMT
            Not After : Feb  2 12:44:43 2019 GMT
        Subject: C=FR, ST=Radius, O=Example Inc., CN=Example Server Certificate/emailAddress=admin@example.org
        Subject Public Key Info:
            Public Key Algorithm: rsaEncryption
                Public-Key: (2048 bit)
                Modulus:
                    00:b4:5e:ce:4c:02:b1:66:68:d3:07:be:fb:26:48:
                    1b:56:b2:49:8f:9c:41:4a:19:7f:04:63:03:47:d4:
                    c1:75:52:ae:c0:7a:f9:a4:1b:f2:8d:9a:ba:7e:bf:
                    1f:9d:9d:2e:18:db:83:1c:42:bd:b9:19:89:a8:6b:
                    1f:5d:14:3f:4d:e5:51:5c:4e:88:64:80:e5:19:e0:
                    56:ee:f5:fb:6d:5a:b3:02:43:a1:e1:33:74:63:f4:
                    75:94:25:0a:c5:19:70:06:82:fe:7f:f0:ad:3e:68:
                    ea:0b:b6:ce:5b:65:96:77:e8:8c:be:61:f2:8f:15:
                    c1:7a:94:74:28:98:cc:24:3b:2a:b0:01:0a:45:10:
                    e4:b9:b6:6d:54:38:09:a6:18:7c:d5:b4:65:a2:ff:
                    03:e0:2f:b4:c2:0f:cf:3f:92:d7:ce:de:98:27:40:
                    dd:f7:bc:4c:31:fc:32:c8:a5:8b:92:d1:8e:ad:28:
                    1c:04:ec:bd:35:42:7b:e2:f7:0f:09:5f:70:30:7f:
                    85:c4:70:c6:de:f3:45:53:44:25:ad:74:81:c7:81:
                    05:ab:f0:97:f9:af:3d:41:12:ac:3e:27:60:ab:65:
                    70:ba:ce:b7:4c:20:1f:19:a9:3b:52:19:7d:c0:cf:
                    fc:d1:61:3b:38:e7:af:12:20:e1:09:99:7e:87:c5:
                    96:4d
                Exponent: 65537 (0x10001)
        X509v3 extensions:
            X509v3 Extended Key Usage: 
                TLS Web Server Authentication
            X509v3 CRL Distribution Points: 

                Full Name:
                  URI:http://www.example.com/example_ca.crl

    Signature Algorithm: sha256WithRSAEncryption
         0f:89:9a:0e:ea:29:51:a1:c3:c6:4c:cc:eb:02:94:8d:a7:8c:
         5a:c0:ba:36:34:65:1e:47:b1:50:9f:15:f5:d5:f4:f0:51:b8:
         b2:9c:62:8a:85:b0:fa:10:da:49:0a:71:20:50:e9:7a:c1:a8:
         ba:e6:09:47:25:10:10:1c:e4:c9:0c:44:b6:ba:00:4d:c6:a3:
         d9:02:8c:d7:bc:7b:c7:30:68:ae:be:e6:c7:e2:68:13:48:da:
         20:ed:84:89:97:a6:c7:f2:47:f5:99:e1:af:1a:e1:2a:ee:09:
         59:99:29:a1:48:6a:f9:9d:9a:9d:2f:ca:47:63:85:0d:60:80:
         b5:d6:91:aa:1e:24:e7:70:eb:b4:cc:62:51:eb:a7:b0:2e:d3:
         c3:bb:16:1b:82:6f:93:59:6f:7b:6c:52:bd:b7:4b:c2:d9:f4:
         86:5f:30:f8:e9:c7:c0:85:45:86:70:e4:fb:c9:a1:b7:5e:0a:
         4f:83:34:46:9f:73:8b:56:86:ce:05:ba:71:cf:d6:a9:2c:1d:
         cd:01:81:55:79:02:4c:59:8b:9f:8b:47:79:46:f9:11:21:43:
         6d:69:d2:54:bf:d7:93:d3:5e:32:03:5e:92:6f:e2:6c:1e:a5:
         2a:78:20:1a:fb:42:e4:d3:a4:6e:d7:01:b9:7f:28:4d:5f:1a:
         de:8d:d0:d5
-----BEGIN CERTIFICATE-----
MIID2jCCAsKgAwIBAgIBATANBgkqhkiG9w0BAQsFADCBkzELMAkGA1UEBhMCRlIx
DzANBgNVBAgMBlJhZGl1czESMBAGA1UEBwwJU29tZXdoZXJlMRUwEwYDVQQKDAxF
eGFtcGxlIEluYy4xIDAeBgkqhkiG9w0BCQEWEWFkbWluQGV4YW1wbGUub3JnMSYw
JAYDVQQDDB1FeGFtcGxlIENlcnRpZmljYXRlIEF1dGhvcml0eTAeFw0xODEyMDQx
MjQ0NDNaFw0xOTAyMDIxMjQ0NDNaMHwxCzAJBgNVBAYTAkZSMQ8wDQYDVQQIDAZS
YWRpdXMxFTATBgNVBAoMDEV4YW1wbGUgSW5jLjEjMCEGA1UEAwwaRXhhbXBsZSBT
ZXJ2ZXIgQ2VydGlmaWNhdGUxIDAeBgkqhkiG9w0BCQEWEWFkbWluQGV4YW1wbGUu
b3JnMIIBIjANBgkqhkiG9w0BAQEFAAOCAQ8AMIIBCgKCAQEAtF7OTAKxZmjTB777
JkgbVrJJj5xBShl/BGMDR9TBdVKuwHr5pBvyjZq6fr8fnZ0uGNuDHEK9uRmJqGsf
XRQ/TeVRXE6IZIDlGeBW7vX7bVqzAkOh4TN0Y/R1lCUKxRlwBoL+f/CtPmjqC7bO
W2WWd+iMvmHyjxXBepR0KJjMJDsqsAEKRRDkubZtVDgJphh81bRlov8D4C+0wg/P
P5LXzt6YJ0Dd97xMMfwyyKWLktGOrSgcBOy9NUJ74vcPCV9wMH+FxHDG3vNFU0Ql
rXSBx4EFq/CX+a89QRKsPidgq2Vwus63TCAfGak7Uhl9wM/80WE7OOevEiDhCZl+
h8WWTQIDAQABo08wTTATBgNVHSUEDDAKBggrBgEFBQcDATA2BgNVHR8ELzAtMCug
KaAnhiVodHRwOi8vd3d3LmV4YW1wbGUuY29tL2V4YW1wbGVfY2EuY3JsMA0GCSqG
SIb3DQEBCwUAA4IBAQAPiZoO6ilRocPGTMzrApSNp4xawLo2NGUeR7FQnxX11fTw
UbiynGKKhbD6ENpJCnEgUOl6wai65glHJRAQHOTJDES2ugBNxqPZAozXvHvHMGiu
vubH4mgTSNog7YSJl6bH8kf1meGvGuEq7glZmSmhSGr5nZqdL8pHY4UNYIC11pGq
HiTncOu0zGJR66ewLtPDuxYbgm+TWW97bFK9t0vC2fSGXzD46cfAhUWGcOT7yaG3
XgpPgzRGn3OLVobOBbpxz9apLB3NAYFVeQJMWYufi0d5RvkRIUNtadJUv9eT014y
A16Sb+JsHqUqeCAa+0Lk06Ru1wG5fyhNXxrejdDV
-----END CERTIFICATE-----
